; Function Attrs: nounwind uwtable
define ptr @EVP_PKEY_get0_DH(ptr noundef captures(address_is_null) %0) local_unnamed_addr #0 {
  %2 = load i32, ptr %0, align 8, !tbaa !26
  switch i32 %2, label %3 [
    i32 28, label %4
    i32 920, label %4
  ]

3:                                                ; preds = %1
  tail call void @ERR_new() #12
  tail call void @ERR_set_debug(ptr noundef nonnull @.str, i32 noundef 986, ptr noundef nonnull @__func__.evp_pkey_get0_DH_int) #12
  tail call void (i32, i32, ptr, ...) @ERR_set_error(i32 noundef 6, i32 noundef 128, ptr noundef null) #12
  br label %evp_pkey_get0_DH_int.exit

4:                                                ; preds = %1, %1
  %5 = tail call ptr @evp_pkey_get_legacy(ptr noundef nonnull %0)
  br label %evp_pkey_get0_DH_int.exit

evp_pkey_get0_DH_int.exit:                        ; preds = %3, %4
  %.0.i = phi ptr [ null, %3 ], [ %5, %4 ]
  ret ptr %.0.i
}